; Function Attrs: mustprogress nounwind uwtable
define hidden void @_ZNK10BufferBlob8print_onEP12outputStream(ptr noundef nonnull align 8 dereferenceable(54) %0, ptr noundef nonnull %1) unnamed_addr #1 align 2 {
  %3 = ptrtoint ptr %0 to i64
  tail call void (ptr, ptr, ...) @_ZN12outputStream8print_crEPKcz(ptr noundef nonnull align 8 dereferenceable(56) %1, ptr noundef nonnull @.str.19, i64 noundef %3) #10
  %4 = getelementptr inbounds i8, ptr %0, i64 44
  %5 = load i32, ptr %4, align 4
  tail call void (ptr, ptr, ...) @_ZN12outputStream8print_crEPKcz(ptr noundef nonnull align 8 dereferenceable(56) %1, ptr noundef nonnull @.str.20, i32 noundef %5) #10
  %6 = load ptr, ptr %0, align 8
  %7 = getelementptr inbounds i8, ptr %6, i64 40
  %8 = load ptr, ptr %7, align 8
  tail call void %8(ptr noundef nonnull align 8 dereferenceable(54) %0, ptr noundef nonnull %1) #10
  ret void
}